ARM GAS  C:\Users\julians\AppData\Local\Temp\ccSQYQJc.s 			page 1


   1              		.syntax unified
   2              		.cpu cortex-m3
   3              		.fpu softvfp
   4              		.eabi_attribute 20, 1
   5              		.eabi_attribute 21, 1
   6              		.eabi_attribute 23, 3
   7              		.eabi_attribute 24, 1
   8              		.eabi_attribute 25, 1
   9              		.eabi_attribute 26, 1
  10              		.eabi_attribute 30, 1
  11              		.eabi_attribute 34, 1
  12              		.eabi_attribute 18, 4
  13              		.thumb
  14              		.syntax unified
  15              		.file	"main.c"
  16              		.text
  17              	.Ltext0:
  18              		.cfi_sections	.debug_frame
  19              		.section	.text.isr1_clk,"ax",%progbits
  20              		.align	2
  21              		.global	isr1_clk
  22              		.thumb
  23              		.thumb_func
  24              		.type	isr1_clk, %function
  25              	isr1_clk:
  26              	.LFB63:
  27              		.file 1 "main.c"
   1:main.c        **** /* ========================================
   2:main.c        ****     Author: Julian Santos 
   3:main.c        **** */
   4:main.c        **** #include "project.h"
   5:main.c        **** // ********************************************************* Functions firm 
   6:main.c        **** void initialize();
   7:main.c        **** 
   8:main.c        **** // ******************************************************** Var declaration
   9:main.c        **** uint16 data_QAM; // This would be the data out 
  10:main.c        **** uint16 tmp;   // Temporal for QAM data
  11:main.c        **** uint16 N; // It is the N-QAM 4,8,16,32,64,128,256,512,1024
  12:main.c        **** uint8 nbit; // Number of the bit to be send
  13:main.c        **** uint8 log2N; // Number of bits used in the N-QAM 2 3 4 5 6 7 8 9 10
  14:main.c        **** uint8 s; // step size
  15:main.c        **** uint8 xcoor; // this will be the x coordinate for the cons**
  16:main.c        **** uint8 ycoor; // this will be the y coordinate for the cons**
  17:main.c        **** uint8 xlim; // Represent how far the data will be in the x  axis
  18:main.c        **** uint8 uno;
  19:main.c        **** 
  20:main.c        **** // ******************************************************************* ISR clock 
  21:main.c        **** CY_ISR(isr1_clk){
  28              		.loc 1 21 0
  29              		.cfi_startproc
  30              		@ args = 0, pretend = 0, frame = 0
  31              		@ frame_needed = 0, uses_anonymous_args = 0
  32 0000 10B5     		push	{r4, lr}
  33              		.cfi_def_cfa_offset 8
  34              		.cfi_offset 4, -8
  35              		.cfi_offset 14, -4
  22:main.c        ****    //Send n bit in a serial way
ARM GAS  C:\Users\julians\AppData\Local\Temp\ccSQYQJc.s 			page 2


  23:main.c        ****     data_out_Write((data_QAM&(uno<<nbit))>0); 
  36              		.loc 1 23 0
  37 0002 1F4B     		ldr	r3, .L7
  38 0004 1B78     		ldrb	r3, [r3]	@ zero_extendqisi2
  39 0006 1F4C     		ldr	r4, .L7+4
  40 0008 2278     		ldrb	r2, [r4]	@ zero_extendqisi2
  41 000a 9340     		lsls	r3, r3, r2
  42 000c 1E4A     		ldr	r2, .L7+8
  43 000e 1288     		ldrh	r2, [r2]
  44 0010 1A42     		tst	r2, r3
  45 0012 14BF     		ite	ne
  46 0014 0120     		movne	r0, #1
  47 0016 0020     		moveq	r0, #0
  48 0018 FFF7FEFF 		bl	data_out_Write
  49              	.LVL0:
  24:main.c        ****     nbit ++ ;
  50              		.loc 1 24 0
  51 001c 2378     		ldrb	r3, [r4]	@ zero_extendqisi2
  52 001e 0133     		adds	r3, r3, #1
  53 0020 DBB2     		uxtb	r3, r3
  54 0022 2370     		strb	r3, [r4]
  25:main.c        ****     if(nbit>(log2N-1)){ // restrict the number of bits to be sent
  55              		.loc 1 25 0
  56 0024 194A     		ldr	r2, .L7+12
  57 0026 1278     		ldrb	r2, [r2]	@ zero_extendqisi2
  58 0028 013A     		subs	r2, r2, #1
  59 002a 9342     		cmp	r3, r2
  60 002c 24DD     		ble	.L2
  26:main.c        ****         nbit = 0;
  61              		.loc 1 26 0
  62 002e 0022     		movs	r2, #0
  63 0030 2270     		strb	r2, [r4]
  27:main.c        ****         data_QAM++; // this line could be replaced with lecture of sensors
  64              		.loc 1 27 0
  65 0032 154A     		ldr	r2, .L7+8
  66 0034 1388     		ldrh	r3, [r2]
  67 0036 0133     		adds	r3, r3, #1
  68 0038 9BB2     		uxth	r3, r3
  69 003a 1380     		strh	r3, [r2]	@ movhi
  28:main.c        ****         if(data_QAM > (N-1)){ // restrict the top of the data 
  70              		.loc 1 28 0
  71 003c 144A     		ldr	r2, .L7+16
  72 003e 1288     		ldrh	r2, [r2]
  73 0040 013A     		subs	r2, r2, #1
  74 0042 9342     		cmp	r3, r2
  75 0044 02DD     		ble	.L3
  29:main.c        ****             data_QAM = 0;
  76              		.loc 1 29 0
  77 0046 0022     		movs	r2, #0
  78 0048 0F4B     		ldr	r3, .L7+8
  79 004a 1A80     		strh	r2, [r3]	@ movhi
  80              	.L3:
  30:main.c        ****         }
  31:main.c        ****         // here will be the function to calculate xcoor and ycoor
  32:main.c        ****         xcoor = data_QAM ;
  81              		.loc 1 32 0
  82 004c 0E4B     		ldr	r3, .L7+8
ARM GAS  C:\Users\julians\AppData\Local\Temp\ccSQYQJc.s 			page 3


  83 004e 1A88     		ldrh	r2, [r3]
  84 0050 104B     		ldr	r3, .L7+20
  85 0052 1A70     		strb	r2, [r3]
  33:main.c        ****         ycoor = 1 ;
  86              		.loc 1 33 0
  87 0054 0122     		movs	r2, #1
  88 0056 104B     		ldr	r3, .L7+24
  89 0058 1A70     		strb	r2, [r3]
  34:main.c        ****         
  35:main.c        ****         while(xcoor > (xlim-1)){
  90              		.loc 1 35 0
  91 005a 06E0     		b	.L4
  92              	.L5:
  36:main.c        ****             ycoor++;
  93              		.loc 1 36 0
  94 005c 0E48     		ldr	r0, .L7+24
  95 005e 0278     		ldrb	r2, [r0]	@ zero_extendqisi2
  96 0060 0132     		adds	r2, r2, #1
  97 0062 0270     		strb	r2, [r0]
  37:main.c        ****             xcoor = xcoor-xlim;
  98              		.loc 1 37 0
  99 0064 5B1A     		subs	r3, r3, r1
 100 0066 0B4A     		ldr	r2, .L7+20
 101 0068 1370     		strb	r3, [r2]
 102              	.L4:
  35:main.c        ****             ycoor++;
 103              		.loc 1 35 0
 104 006a 0A4B     		ldr	r3, .L7+20
 105 006c 1B78     		ldrb	r3, [r3]	@ zero_extendqisi2
 106 006e 0B4A     		ldr	r2, .L7+28
 107 0070 1178     		ldrb	r1, [r2]	@ zero_extendqisi2
 108 0072 4A1E     		subs	r2, r1, #1
 109 0074 9342     		cmp	r3, r2
 110 0076 F1DC     		bgt	.L5
 111              	.L2:
  38:main.c        ****         }
  39:main.c        ****     }
  40:main.c        ****     Pin_in_clk_ClearInterrupt();
 112              		.loc 1 40 0
 113 0078 FFF7FEFF 		bl	Pin_in_clk_ClearInterrupt
 114              	.LVL1:
 115 007c 10BD     		pop	{r4, pc}
 116              	.L8:
 117 007e 00BF     		.align	2
 118              	.L7:
 119 0080 00000000 		.word	uno
 120 0084 00000000 		.word	nbit
 121 0088 00000000 		.word	data_QAM
 122 008c 00000000 		.word	log2N
 123 0090 00000000 		.word	N
 124 0094 00000000 		.word	xcoor
 125 0098 00000000 		.word	ycoor
 126 009c 00000000 		.word	xlim
 127              		.cfi_endproc
 128              	.LFE63:
 129              		.size	isr1_clk, .-isr1_clk
 130              		.section	.text.isr2_bl,"ax",%progbits
ARM GAS  C:\Users\julians\AppData\Local\Temp\ccSQYQJc.s 			page 4


 131              		.align	2
 132              		.global	isr2_bl
 133              		.thumb
 134              		.thumb_func
 135              		.type	isr2_bl, %function
 136              	isr2_bl:
 137              	.LFB64:
  41:main.c        **** }
  42:main.c        **** 
  43:main.c        **** // *************************************************************** ISR RX Bluetooth
  44:main.c        **** CY_ISR(isr2_bl){
 138              		.loc 1 44 0
 139              		.cfi_startproc
 140              		@ args = 0, pretend = 0, frame = 0
 141              		@ frame_needed = 0, uses_anonymous_args = 0
 142 0000 08B5     		push	{r3, lr}
 143              		.cfi_def_cfa_offset 8
 144              		.cfi_offset 3, -8
 145              		.cfi_offset 14, -4
  45:main.c        ****     uint8 temp;
  46:main.c        ****     temp = UART_GetChar();
 146              		.loc 1 46 0
 147 0002 FFF7FEFF 		bl	UART_GetChar
 148              	.LVL2:
  47:main.c        ****         if(temp>1 && temp<11){ // for make sure that the data is in the ok range
 149              		.loc 1 47 0
 150 0006 831E     		subs	r3, r0, #2
 151 0008 DBB2     		uxtb	r3, r3
 152 000a 082B     		cmp	r3, #8
 153 000c 06D8     		bhi	.L9
  48:main.c        ****             log2N = temp; 
 154              		.loc 1 48 0
 155 000e 044B     		ldr	r3, .L12
 156 0010 1870     		strb	r0, [r3]
  49:main.c        ****             N = 2^log2N ;
 157              		.loc 1 49 0
 158 0012 80F00200 		eor	r0, r0, #2
 159              	.LVL3:
 160 0016 C0B2     		uxtb	r0, r0
 161 0018 024B     		ldr	r3, .L12+4
 162 001a 1880     		strh	r0, [r3]	@ movhi
 163              	.LVL4:
 164              	.L9:
 165 001c 08BD     		pop	{r3, pc}
 166              	.L13:
 167 001e 00BF     		.align	2
 168              	.L12:
 169 0020 00000000 		.word	log2N
 170 0024 00000000 		.word	N
 171              		.cfi_endproc
 172              	.LFE64:
 173              		.size	isr2_bl, .-isr2_bl
 174              		.section	.text.initialize,"ax",%progbits
 175              		.align	2
 176              		.global	initialize
 177              		.thumb
 178              		.thumb_func
ARM GAS  C:\Users\julians\AppData\Local\Temp\ccSQYQJc.s 			page 5


 179              		.type	initialize, %function
 180              	initialize:
 181              	.LFB66:
  50:main.c        ****             if(temp == 2 ){ // for QAM 4
  51:main.c        ****             }
  52:main.c        ****             else if(temp == 3 ){ // for QAM 8
  53:main.c        ****             }
  54:main.c        ****             else if(temp == 4 ){ //for QAM 16
  55:main.c        ****             }
  56:main.c        ****             else if(temp == 5 ){ //for QAM 32
  57:main.c        ****             }
  58:main.c        ****             else if(temp == 6 ){ //for QAM 64
  59:main.c        ****             }
  60:main.c        ****             else if(temp == 7 ){ //for QAM 128
  61:main.c        ****             }
  62:main.c        ****             else if(temp == 8 ){ //for QAM 256
  63:main.c        ****             }
  64:main.c        ****             else if(temp == 9 ){ //for QAM 512
  65:main.c        ****             }
  66:main.c        ****             else if(temp == 10 ){ //for QAM 1024
  67:main.c        ****             }
  68:main.c        ****             else{}
  69:main.c        ****         }      
  70:main.c        ****         else{}
  71:main.c        **** }
  72:main.c        **** 
  73:main.c        **** // ********************************************************* Main function
  74:main.c        **** int main(void)
  75:main.c        **** {
  76:main.c        ****     initialize();                   // calling the function to initialize the variables.
  77:main.c        ****     CLOCK_Start();                  // on clock
  78:main.c        ****     X_Start();                      // on DAC X axis.
  79:main.c        ****     Y_Start();                      // on DAC Y axis.
  80:main.c        ****     UART_Start();                   // on UART 
  81:main.c        ****     isr_clk_StartEx(isr1_clk);      // on interrupt clk.
  82:main.c        ****     //isr_bluetooth_StartEx(isr2_bl); // on rx interrupt.
  83:main.c        ****     CyGlobalIntEnable;              // Enable global interrupts.
  84:main.c        **** 
  85:main.c        ****     /* Place your initialization/startup code here (e.g. MyInst_Start()) */
  86:main.c        ****     for(;;)
  87:main.c        ****     {
  88:main.c        ****         //****************************************4 QAM (1 per cuadrant) [2 bits] ok
  89:main.c        ****         if(log2N == 2){
  90:main.c        ****             if(data_QAM == 0){X_SetValue(10*s); Y_SetValue(10*s); signX_Write(0); signY_Write(0);}
  91:main.c        ****             else if(data_QAM == 1){X_SetValue(10*s); Y_SetValue(10*s); signX_Write(1); signY_Write(
  92:main.c        ****             else if(data_QAM == 2){X_SetValue(10*s); Y_SetValue(10*s); signX_Write(0); signY_Write(
  93:main.c        ****             else if(data_QAM == 3){X_SetValue(10*s); Y_SetValue(10*s); signX_Write(0); signY_Write(
  94:main.c        ****             else{}; //error case
  95:main.c        ****         }
  96:main.c        ****         //****************************************8 QAM [3 bits] ok
  97:main.c        ****         else if(log2N == 3){
  98:main.c        ****             if(data_QAM == 0){X_SetValue(8*s); Y_SetValue(0); signX_Write(0); signY_Write(0);}
  99:main.c        ****             else if(data_QAM == 1){X_SetValue(0); Y_SetValue(8*s); signX_Write(0); signY_Write(0);}
 100:main.c        ****             else if(data_QAM == 2){X_SetValue(8*s); Y_SetValue(0); signX_Write(1); signY_Write(0);}
 101:main.c        ****             else if(data_QAM == 3){X_SetValue(0); Y_SetValue(8*s); signX_Write(0); signY_Write(1);}
 102:main.c        ****             else if(data_QAM == 4){X_SetValue(16*s); Y_SetValue(16*s); signX_Write(0); signY_Write(
 103:main.c        ****             else if(data_QAM == 5){X_SetValue(16*s); Y_SetValue(16*s); signX_Write(1); signY_Write(
ARM GAS  C:\Users\julians\AppData\Local\Temp\ccSQYQJc.s 			page 6


 104:main.c        ****             else if(data_QAM == 6){X_SetValue(16*s); Y_SetValue(16*s); signX_Write(1); signY_Write(
 105:main.c        ****             else if(data_QAM == 7){X_SetValue(16*s); Y_SetValue(16*s); signX_Write(0); signY_Write(
 106:main.c        ****             else {} // error case 
 107:main.c        ****         }
 108:main.c        ****         //****************************************16 QAM (4 per cuadrant) [4 bits] ok
 109:main.c        ****         else if(log2N == 4){
 110:main.c        ****             //bias
 111:main.c        ****             if(data_QAM > 11){signX_Write(0); signY_Write(1); tmp = data_QAM - 12;}
 112:main.c        ****             else if(data_QAM > 7){signX_Write(1); signY_Write(1); tmp= data_QAM - 8;}
 113:main.c        ****             else if(data_QAM >3){signX_Write(1); signY_Write(1); tmp = data_QAM - 4;}
 114:main.c        ****             else{signX_Write(0); signY_Write(0);};
 115:main.c        ****             //analog data
 116:main.c        ****             if(tmp == 0){X_SetValue(8*s); Y_SetValue(8*s);}
 117:main.c        ****             else if(tmp == 1){X_SetValue(16*s); Y_SetValue(8*s);}
 118:main.c        ****             else if(tmp == 2){X_SetValue(8*s); Y_SetValue(16*s);}
 119:main.c        ****             else if(tmp == 3){X_SetValue(16*s); Y_SetValue(16*s);}
 120:main.c        ****             else{}; //error case
 121:main.c        ****         }        
 122:main.c        ****         //****************************************32 QAM (8 per cuadrant) [5 bits]
 123:main.c        ****         else if(log2N == 5){
 124:main.c        ****             //bias
 125:main.c        ****             if(data_QAM > 23){signX_Write(0); signY_Write(0); tmp = data_QAM - 24;}
 126:main.c        ****             else if(data_QAM > 15){signX_Write(0); signY_Write(0); tmp= data_QAM - 16;}
 127:main.c        ****             else if(data_QAM >7){signX_Write(0); signY_Write(0); tmp = data_QAM - 8;}
 128:main.c        ****             else{signX_Write(0); signY_Write(0);};
 129:main.c        ****             //analog data
 130:main.c        ****             X_SetValue(s*xcoor);
 131:main.c        ****             Y_SetValue(s*ycoor);
 132:main.c        ****         }
 133:main.c        ****         //****************************************64 QAM (16 per cuadrant) [6 bits]
 134:main.c        ****         else if(log2N == 6){
 135:main.c        ****             //bias
 136:main.c        ****             if(data_QAM > 47){signX_Write(0); signY_Write(0); tmp = data_QAM - 48;}
 137:main.c        ****             else if(data_QAM > 31){signX_Write(1); signY_Write(0); tmp= data_QAM - 32;}
 138:main.c        ****             else if(data_QAM >15){signX_Write(1); signY_Write(1); tmp = data_QAM - 16;}
 139:main.c        ****             else{signX_Write(0); signY_Write(0);};
 140:main.c        ****             //analog data
 141:main.c        ****             //analog data
 142:main.c        ****             X_SetValue(s*xcoor);
 143:main.c        ****             Y_SetValue(s*ycoor);
 144:main.c        ****         }
 145:main.c        ****         //****************************************128 QAM (32 per cuadrant) [7 bits]
 146:main.c        ****         else if(log2N == 7){
 147:main.c        ****             //bias
 148:main.c        ****             if(data_QAM > 95){signX_Write(0); signY_Write(0); tmp = data_QAM - 96;}
 149:main.c        ****             else if(data_QAM > 63){signX_Write(1); signY_Write(0); tmp= data_QAM - 64;}
 150:main.c        ****             else if(data_QAM >31){signX_Write(1); signY_Write(1); tmp = data_QAM - 32;}
 151:main.c        ****             else{signX_Write(0); signY_Write(0);};
 152:main.c        ****              //analog data
 153:main.c        ****             X_SetValue(s*xcoor);
 154:main.c        ****             Y_SetValue(s*ycoor);
 155:main.c        ****         }
 156:main.c        ****         //****************************************256 QAM (64 per cuadrant) [8 bits]
 157:main.c        ****         else if(log2N == 8){
 158:main.c        ****             //bias
 159:main.c        ****             if(data_QAM > 191){signX_Write(0); signY_Write(0); tmp = data_QAM - 192;}
 160:main.c        ****             else if(data_QAM > 127){signX_Write(1); signY_Write(0); tmp= data_QAM - 128;}
ARM GAS  C:\Users\julians\AppData\Local\Temp\ccSQYQJc.s 			page 7


 161:main.c        ****             else if(data_QAM >63){signX_Write(1); signY_Write(1); tmp = data_QAM - 64;}
 162:main.c        ****             else{signX_Write(0); signY_Write(0);};
 163:main.c        ****              //analog data
 164:main.c        ****             X_SetValue(s*xcoor);
 165:main.c        ****             Y_SetValue(s*ycoor);
 166:main.c        ****         }
 167:main.c        ****         //****************************************512 QAM (128 per cuadrant) [9 bits]
 168:main.c        ****         else if(log2N == 9){
 169:main.c        ****         //bias
 170:main.c        ****             if(data_QAM > 383){signX_Write(0); signY_Write(0); tmp = data_QAM - 384;}
 171:main.c        ****             else if(data_QAM > 255){signX_Write(1); signY_Write(0); tmp= data_QAM - 256;}
 172:main.c        ****             else if(data_QAM >127){signX_Write(1); signY_Write(1); tmp = data_QAM - 128;}
 173:main.c        ****             else{signX_Write(0); signY_Write(0);};
 174:main.c        ****             //analog data
 175:main.c        ****             X_SetValue(s*xcoor);
 176:main.c        ****             Y_SetValue(s*ycoor);    
 177:main.c        ****         }
 178:main.c        ****         //****************************************1024 QAM (256 per cuadrant) [10 bits]
 179:main.c        ****         else if(log2N == 10){
 180:main.c        ****             //bias
 181:main.c        ****             if(data_QAM > 767){signX_Write(0); signY_Write(1); tmp = data_QAM - 768;}
 182:main.c        ****             else if(data_QAM > 511){signX_Write(1); signY_Write(0); tmp= data_QAM - 512;}
 183:main.c        ****             else if(data_QAM > 255){signX_Write(1); signY_Write(1); tmp = data_QAM - 256;}
 184:main.c        ****             else{signX_Write(0); signY_Write(0);};
 185:main.c        ****              //analog data
 186:main.c        ****             X_SetValue(s*xcoor);
 187:main.c        ****             Y_SetValue(s*ycoor);
 188:main.c        ****             
 189:main.c        ****         }
 190:main.c        ****         
 191:main.c        ****         //****************************************** error case 
 192:main.c        ****         else{
 193:main.c        ****         }
 194:main.c        ****     }
 195:main.c        **** }
 196:main.c        **** 
 197:main.c        **** // ***************************** This function is for initialize variables
 198:main.c        **** void initialize(){
 182              		.loc 1 198 0
 183              		.cfi_startproc
 184              		@ args = 0, pretend = 0, frame = 0
 185              		@ frame_needed = 0, uses_anonymous_args = 0
 186              		@ link register save eliminated.
 199:main.c        ****     nbit = 0; // for start sending the  first bit
 187              		.loc 1 199 0
 188 0000 0023     		movs	r3, #0
 189 0002 094A     		ldr	r2, .L15
 190 0004 1370     		strb	r3, [r2]
 200:main.c        ****     data_QAM = 0; // initial value
 191              		.loc 1 200 0
 192 0006 094A     		ldr	r2, .L15+4
 193 0008 1380     		strh	r3, [r2]	@ movhi
 201:main.c        ****     N =4; // initial value 
 194              		.loc 1 201 0
 195 000a 0422     		movs	r2, #4
 196 000c 084B     		ldr	r3, .L15+8
 197 000e 1A80     		strh	r2, [r3]	@ movhi
ARM GAS  C:\Users\julians\AppData\Local\Temp\ccSQYQJc.s 			page 8


 202:main.c        ****     log2N = 2;
 198              		.loc 1 202 0
 199 0010 0223     		movs	r3, #2
 200 0012 084A     		ldr	r2, .L15+12
 201 0014 1370     		strb	r3, [r2]
 203:main.c        ****     s = 15; // step (less distance between stars)
 202              		.loc 1 203 0
 203 0016 0F21     		movs	r1, #15
 204 0018 074A     		ldr	r2, .L15+16
 205 001a 1170     		strb	r1, [r2]
 204:main.c        ****     xlim = 2; // in fact it is 16 but the flux of data starts at 0
 206              		.loc 1 204 0
 207 001c 074A     		ldr	r2, .L15+20
 208 001e 1370     		strb	r3, [r2]
 205:main.c        ****     uno=1; // 
 209              		.loc 1 205 0
 210 0020 0122     		movs	r2, #1
 211 0022 074B     		ldr	r3, .L15+24
 212 0024 1A70     		strb	r2, [r3]
 213 0026 7047     		bx	lr
 214              	.L16:
 215              		.align	2
 216              	.L15:
 217 0028 00000000 		.word	nbit
 218 002c 00000000 		.word	data_QAM
 219 0030 00000000 		.word	N
 220 0034 00000000 		.word	log2N
 221 0038 00000000 		.word	s
 222 003c 00000000 		.word	xlim
 223 0040 00000000 		.word	uno
 224              		.cfi_endproc
 225              	.LFE66:
 226              		.size	initialize, .-initialize
 227              		.section	.text.main,"ax",%progbits
 228              		.align	2
 229              		.global	main
 230              		.thumb
 231              		.thumb_func
 232              		.type	main, %function
 233              	main:
 234              	.LFB65:
  75:main.c        ****     initialize();                   // calling the function to initialize the variables.
 235              		.loc 1 75 0
 236              		.cfi_startproc
 237              		@ Volatile: function does not return.
 238              		@ args = 0, pretend = 0, frame = 0
 239              		@ frame_needed = 0, uses_anonymous_args = 0
 240 0000 08B5     		push	{r3, lr}
 241              		.cfi_def_cfa_offset 8
 242              		.cfi_offset 3, -8
 243              		.cfi_offset 14, -4
  76:main.c        ****     CLOCK_Start();                  // on clock
 244              		.loc 1 76 0
 245 0002 FFF7FEFF 		bl	initialize
 246              	.LVL5:
  77:main.c        ****     X_Start();                      // on DAC X axis.
 247              		.loc 1 77 0
ARM GAS  C:\Users\julians\AppData\Local\Temp\ccSQYQJc.s 			page 9


 248 0006 FFF7FEFF 		bl	CLOCK_Start
 249              	.LVL6:
  78:main.c        ****     Y_Start();                      // on DAC Y axis.
 250              		.loc 1 78 0
 251 000a FFF7FEFF 		bl	X_Start
 252              	.LVL7:
  79:main.c        ****     UART_Start();                   // on UART 
 253              		.loc 1 79 0
 254 000e FFF7FEFF 		bl	Y_Start
 255              	.LVL8:
  80:main.c        ****     isr_clk_StartEx(isr1_clk);      // on interrupt clk.
 256              		.loc 1 80 0
 257 0012 FFF7FEFF 		bl	UART_Start
 258              	.LVL9:
  81:main.c        ****     //isr_bluetooth_StartEx(isr2_bl); // on rx interrupt.
 259              		.loc 1 81 0
 260 0016 BF48     		ldr	r0, .L70
 261 0018 FFF7FEFF 		bl	isr_clk_StartEx
 262              	.LVL10:
  83:main.c        **** 
 263              		.loc 1 83 0
 264              		.syntax unified
 265              	@ 83 "main.c" 1
 266 001c 62B6     		CPSIE   i
 267              	@ 0 "" 2
 268              		.thumb
 269              		.syntax unified
 270              	.L18:
  89:main.c        ****             if(data_QAM == 0){X_SetValue(10*s); Y_SetValue(10*s); signX_Write(0); signY_Write(0);}
 271              		.loc 1 89 0
 272 001e BE4B     		ldr	r3, .L70+4
 273 0020 1B78     		ldrb	r3, [r3]	@ zero_extendqisi2
 274 0022 022B     		cmp	r3, #2
 275 0024 68D1     		bne	.L19
  90:main.c        ****             else if(data_QAM == 1){X_SetValue(10*s); Y_SetValue(10*s); signX_Write(1); signY_Write(
 276              		.loc 1 90 0
 277 0026 BD4B     		ldr	r3, .L70+8
 278 0028 1B88     		ldrh	r3, [r3]
 279 002a BBB9     		cbnz	r3, .L20
  90:main.c        ****             else if(data_QAM == 1){X_SetValue(10*s); Y_SetValue(10*s); signX_Write(1); signY_Write(
 280              		.loc 1 90 0 is_stmt 0 discriminator 1
 281 002c BC4C     		ldr	r4, .L70+12
 282 002e 2378     		ldrb	r3, [r4]	@ zero_extendqisi2
 283 0030 03EB8303 		add	r3, r3, r3, lsl #2
 284 0034 5800     		lsls	r0, r3, #1
 285 0036 00F0FE00 		and	r0, r0, #254
 286 003a FFF7FEFF 		bl	X_SetValue
 287              	.LVL11:
 288 003e 2378     		ldrb	r3, [r4]	@ zero_extendqisi2
 289 0040 03EB8303 		add	r3, r3, r3, lsl #2
 290 0044 5800     		lsls	r0, r3, #1
 291 0046 00F0FE00 		and	r0, r0, #254
 292 004a FFF7FEFF 		bl	Y_SetValue
 293              	.LVL12:
 294 004e 0020     		movs	r0, #0
 295 0050 FFF7FEFF 		bl	signX_Write
 296              	.LVL13:
ARM GAS  C:\Users\julians\AppData\Local\Temp\ccSQYQJc.s 			page 10


 297 0054 0020     		movs	r0, #0
 298 0056 FFF7FEFF 		bl	signY_Write
 299              	.LVL14:
 300 005a E0E7     		b	.L18
 301              	.L20:
  91:main.c        ****             else if(data_QAM == 2){X_SetValue(10*s); Y_SetValue(10*s); signX_Write(0); signY_Write(
 302              		.loc 1 91 0 is_stmt 1
 303 005c 012B     		cmp	r3, #1
 304 005e 17D1     		bne	.L22
  91:main.c        ****             else if(data_QAM == 2){X_SetValue(10*s); Y_SetValue(10*s); signX_Write(0); signY_Write(
 305              		.loc 1 91 0 is_stmt 0 discriminator 1
 306 0060 AF4C     		ldr	r4, .L70+12
 307 0062 2378     		ldrb	r3, [r4]	@ zero_extendqisi2
 308 0064 03EB8303 		add	r3, r3, r3, lsl #2
 309 0068 5800     		lsls	r0, r3, #1
 310 006a 00F0FE00 		and	r0, r0, #254
 311 006e FFF7FEFF 		bl	X_SetValue
 312              	.LVL15:
 313 0072 2378     		ldrb	r3, [r4]	@ zero_extendqisi2
 314 0074 03EB8303 		add	r3, r3, r3, lsl #2
 315 0078 5800     		lsls	r0, r3, #1
 316 007a 00F0FE00 		and	r0, r0, #254
 317 007e FFF7FEFF 		bl	Y_SetValue
 318              	.LVL16:
 319 0082 0120     		movs	r0, #1
 320 0084 FFF7FEFF 		bl	signX_Write
 321              	.LVL17:
 322 0088 0020     		movs	r0, #0
 323 008a FFF7FEFF 		bl	signY_Write
 324              	.LVL18:
 325 008e C6E7     		b	.L18
 326              	.L22:
  92:main.c        ****             else if(data_QAM == 3){X_SetValue(10*s); Y_SetValue(10*s); signX_Write(0); signY_Write(
 327              		.loc 1 92 0 is_stmt 1
 328 0090 022B     		cmp	r3, #2
 329 0092 17D1     		bne	.L23
  92:main.c        ****             else if(data_QAM == 3){X_SetValue(10*s); Y_SetValue(10*s); signX_Write(0); signY_Write(
 330              		.loc 1 92 0 is_stmt 0 discriminator 1
 331 0094 A24C     		ldr	r4, .L70+12
 332 0096 2378     		ldrb	r3, [r4]	@ zero_extendqisi2
 333 0098 03EB8303 		add	r3, r3, r3, lsl #2
 334 009c 5800     		lsls	r0, r3, #1
 335 009e 00F0FE00 		and	r0, r0, #254
 336 00a2 FFF7FEFF 		bl	X_SetValue
 337              	.LVL19:
 338 00a6 2378     		ldrb	r3, [r4]	@ zero_extendqisi2
 339 00a8 03EB8303 		add	r3, r3, r3, lsl #2
 340 00ac 5800     		lsls	r0, r3, #1
 341 00ae 00F0FE00 		and	r0, r0, #254
 342 00b2 FFF7FEFF 		bl	Y_SetValue
 343              	.LVL20:
 344 00b6 0020     		movs	r0, #0
 345 00b8 FFF7FEFF 		bl	signX_Write
 346              	.LVL21:
 347 00bc 0020     		movs	r0, #0
 348 00be FFF7FEFF 		bl	signY_Write
 349              	.LVL22:
ARM GAS  C:\Users\julians\AppData\Local\Temp\ccSQYQJc.s 			page 11


 350 00c2 ACE7     		b	.L18
 351              	.L23:
  93:main.c        ****             else{}; //error case
 352              		.loc 1 93 0 is_stmt 1
 353 00c4 032B     		cmp	r3, #3
 354 00c6 AAD1     		bne	.L18
  93:main.c        ****             else{}; //error case
 355              		.loc 1 93 0 is_stmt 0 discriminator 1
 356 00c8 954C     		ldr	r4, .L70+12
 357 00ca 2378     		ldrb	r3, [r4]	@ zero_extendqisi2
 358 00cc 03EB8303 		add	r3, r3, r3, lsl #2
 359 00d0 5800     		lsls	r0, r3, #1
 360 00d2 00F0FE00 		and	r0, r0, #254
 361 00d6 FFF7FEFF 		bl	X_SetValue
 362              	.LVL23:
 363 00da 2378     		ldrb	r3, [r4]	@ zero_extendqisi2
 364 00dc 03EB8303 		add	r3, r3, r3, lsl #2
 365 00e0 5800     		lsls	r0, r3, #1
 366 00e2 00F0FE00 		and	r0, r0, #254
 367 00e6 FFF7FEFF 		bl	Y_SetValue
 368              	.LVL24:
 369 00ea 0020     		movs	r0, #0
 370 00ec FFF7FEFF 		bl	signX_Write
 371              	.LVL25:
 372 00f0 0120     		movs	r0, #1
 373 00f2 FFF7FEFF 		bl	signY_Write
 374              	.LVL26:
 375 00f6 92E7     		b	.L18
 376              	.L19:
  97:main.c        ****             if(data_QAM == 0){X_SetValue(8*s); Y_SetValue(0); signX_Write(0); signY_Write(0);}
 377              		.loc 1 97 0 is_stmt 1
 378 00f8 032B     		cmp	r3, #3
 379 00fa 40F0A680 		bne	.L24
  98:main.c        ****             else if(data_QAM == 1){X_SetValue(0); Y_SetValue(8*s); signX_Write(0); signY_Write(0);}
 380              		.loc 1 98 0
 381 00fe 874B     		ldr	r3, .L70+8
 382 0100 1B88     		ldrh	r3, [r3]
 383 0102 83B9     		cbnz	r3, .L25
  98:main.c        ****             else if(data_QAM == 1){X_SetValue(0); Y_SetValue(8*s); signX_Write(0); signY_Write(0);}
 384              		.loc 1 98 0 is_stmt 0 discriminator 1
 385 0104 864B     		ldr	r3, .L70+12
 386 0106 1878     		ldrb	r0, [r3]	@ zero_extendqisi2
 387 0108 C000     		lsls	r0, r0, #3
 388 010a 00F0F800 		and	r0, r0, #248
 389 010e FFF7FEFF 		bl	X_SetValue
 390              	.LVL27:
 391 0112 0020     		movs	r0, #0
 392 0114 FFF7FEFF 		bl	Y_SetValue
 393              	.LVL28:
 394 0118 0020     		movs	r0, #0
 395 011a FFF7FEFF 		bl	signX_Write
 396              	.LVL29:
 397 011e 0020     		movs	r0, #0
 398 0120 FFF7FEFF 		bl	signY_Write
 399              	.LVL30:
 400 0124 7BE7     		b	.L18
 401              	.L25:
ARM GAS  C:\Users\julians\AppData\Local\Temp\ccSQYQJc.s 			page 12


  99:main.c        ****             else if(data_QAM == 2){X_SetValue(8*s); Y_SetValue(0); signX_Write(1); signY_Write(0);}
 402              		.loc 1 99 0 is_stmt 1
 403 0126 012B     		cmp	r3, #1
 404 0128 10D1     		bne	.L26
  99:main.c        ****             else if(data_QAM == 2){X_SetValue(8*s); Y_SetValue(0); signX_Write(1); signY_Write(0);}
 405              		.loc 1 99 0 is_stmt 0 discriminator 1
 406 012a 0020     		movs	r0, #0
 407 012c FFF7FEFF 		bl	X_SetValue
 408              	.LVL31:
 409 0130 7B4B     		ldr	r3, .L70+12
 410 0132 1878     		ldrb	r0, [r3]	@ zero_extendqisi2
 411 0134 C000     		lsls	r0, r0, #3
 412 0136 00F0F800 		and	r0, r0, #248
 413 013a FFF7FEFF 		bl	Y_SetValue
 414              	.LVL32:
 415 013e 0020     		movs	r0, #0
 416 0140 FFF7FEFF 		bl	signX_Write
 417              	.LVL33:
 418 0144 0020     		movs	r0, #0
 419 0146 FFF7FEFF 		bl	signY_Write
 420              	.LVL34:
 421 014a 68E7     		b	.L18
 422              	.L26:
 100:main.c        ****             else if(data_QAM == 3){X_SetValue(0); Y_SetValue(8*s); signX_Write(0); signY_Write(1);}
 423              		.loc 1 100 0 is_stmt 1
 424 014c 022B     		cmp	r3, #2
 425 014e 10D1     		bne	.L27
 100:main.c        ****             else if(data_QAM == 3){X_SetValue(0); Y_SetValue(8*s); signX_Write(0); signY_Write(1);}
 426              		.loc 1 100 0 is_stmt 0 discriminator 1
 427 0150 734B     		ldr	r3, .L70+12
 428 0152 1878     		ldrb	r0, [r3]	@ zero_extendqisi2
 429 0154 C000     		lsls	r0, r0, #3
 430 0156 00F0F800 		and	r0, r0, #248
 431 015a FFF7FEFF 		bl	X_SetValue
 432              	.LVL35:
 433 015e 0020     		movs	r0, #0
 434 0160 FFF7FEFF 		bl	Y_SetValue
 435              	.LVL36:
 436 0164 0120     		movs	r0, #1
 437 0166 FFF7FEFF 		bl	signX_Write
 438              	.LVL37:
 439 016a 0020     		movs	r0, #0
 440 016c FFF7FEFF 		bl	signY_Write
 441              	.LVL38:
 442 0170 55E7     		b	.L18
 443              	.L27:
 101:main.c        ****             else if(data_QAM == 4){X_SetValue(16*s); Y_SetValue(16*s); signX_Write(0); signY_Write(
 444              		.loc 1 101 0 is_stmt 1
 445 0172 032B     		cmp	r3, #3
 446 0174 10D1     		bne	.L28
 101:main.c        ****             else if(data_QAM == 4){X_SetValue(16*s); Y_SetValue(16*s); signX_Write(0); signY_Write(
 447              		.loc 1 101 0 is_stmt 0 discriminator 1
 448 0176 0020     		movs	r0, #0
 449 0178 FFF7FEFF 		bl	X_SetValue
 450              	.LVL39:
 451 017c 684B     		ldr	r3, .L70+12
 452 017e 1878     		ldrb	r0, [r3]	@ zero_extendqisi2
ARM GAS  C:\Users\julians\AppData\Local\Temp\ccSQYQJc.s 			page 13


 453 0180 C000     		lsls	r0, r0, #3
 454 0182 00F0F800 		and	r0, r0, #248
 455 0186 FFF7FEFF 		bl	Y_SetValue
 456              	.LVL40:
 457 018a 0020     		movs	r0, #0
 458 018c FFF7FEFF 		bl	signX_Write
 459              	.LVL41:
 460 0190 0120     		movs	r0, #1
 461 0192 FFF7FEFF 		bl	signY_Write
 462              	.LVL42:
 463 0196 42E7     		b	.L18
 464              	.L28:
 102:main.c        ****             else if(data_QAM == 5){X_SetValue(16*s); Y_SetValue(16*s); signX_Write(1); signY_Write(
 465              		.loc 1 102 0 is_stmt 1
 466 0198 042B     		cmp	r3, #4
 467 019a 13D1     		bne	.L29
 102:main.c        ****             else if(data_QAM == 5){X_SetValue(16*s); Y_SetValue(16*s); signX_Write(1); signY_Write(
 468              		.loc 1 102 0 is_stmt 0 discriminator 1
 469 019c 604C     		ldr	r4, .L70+12
 470 019e 2078     		ldrb	r0, [r4]	@ zero_extendqisi2
 471 01a0 0001     		lsls	r0, r0, #4
 472 01a2 00F0F000 		and	r0, r0, #240
 473 01a6 FFF7FEFF 		bl	X_SetValue
 474              	.LVL43:
 475 01aa 2078     		ldrb	r0, [r4]	@ zero_extendqisi2
 476 01ac 0001     		lsls	r0, r0, #4
 477 01ae 00F0F000 		and	r0, r0, #240
 478 01b2 FFF7FEFF 		bl	Y_SetValue
 479              	.LVL44:
 480 01b6 0020     		movs	r0, #0
 481 01b8 FFF7FEFF 		bl	signX_Write
 482              	.LVL45:
 483 01bc 0020     		movs	r0, #0
 484 01be FFF7FEFF 		bl	signY_Write
 485              	.LVL46:
 486 01c2 2CE7     		b	.L18
 487              	.L29:
 103:main.c        ****             else if(data_QAM == 6){X_SetValue(16*s); Y_SetValue(16*s); signX_Write(1); signY_Write(
 488              		.loc 1 103 0 is_stmt 1
 489 01c4 052B     		cmp	r3, #5
 490 01c6 13D1     		bne	.L30
 103:main.c        ****             else if(data_QAM == 6){X_SetValue(16*s); Y_SetValue(16*s); signX_Write(1); signY_Write(
 491              		.loc 1 103 0 is_stmt 0 discriminator 1
 492 01c8 554C     		ldr	r4, .L70+12
 493 01ca 2078     		ldrb	r0, [r4]	@ zero_extendqisi2
 494 01cc 0001     		lsls	r0, r0, #4
 495 01ce 00F0F000 		and	r0, r0, #240
 496 01d2 FFF7FEFF 		bl	X_SetValue
 497              	.LVL47:
 498 01d6 2078     		ldrb	r0, [r4]	@ zero_extendqisi2
 499 01d8 0001     		lsls	r0, r0, #4
 500 01da 00F0F000 		and	r0, r0, #240
 501 01de FFF7FEFF 		bl	Y_SetValue
 502              	.LVL48:
 503 01e2 0120     		movs	r0, #1
 504 01e4 FFF7FEFF 		bl	signX_Write
 505              	.LVL49:
ARM GAS  C:\Users\julians\AppData\Local\Temp\ccSQYQJc.s 			page 14


 506 01e8 0020     		movs	r0, #0
 507 01ea FFF7FEFF 		bl	signY_Write
 508              	.LVL50:
 509 01ee 16E7     		b	.L18
 510              	.L30:
 104:main.c        ****             else if(data_QAM == 7){X_SetValue(16*s); Y_SetValue(16*s); signX_Write(0); signY_Write(
 511              		.loc 1 104 0 is_stmt 1
 512 01f0 062B     		cmp	r3, #6
 513 01f2 13D1     		bne	.L31
 104:main.c        ****             else if(data_QAM == 7){X_SetValue(16*s); Y_SetValue(16*s); signX_Write(0); signY_Write(
 514              		.loc 1 104 0 is_stmt 0 discriminator 1
 515 01f4 4A4C     		ldr	r4, .L70+12
 516 01f6 2078     		ldrb	r0, [r4]	@ zero_extendqisi2
 517 01f8 0001     		lsls	r0, r0, #4
 518 01fa 00F0F000 		and	r0, r0, #240
 519 01fe FFF7FEFF 		bl	X_SetValue
 520              	.LVL51:
 521 0202 2078     		ldrb	r0, [r4]	@ zero_extendqisi2
 522 0204 0001     		lsls	r0, r0, #4
 523 0206 00F0F000 		and	r0, r0, #240
 524 020a FFF7FEFF 		bl	Y_SetValue
 525              	.LVL52:
 526 020e 0120     		movs	r0, #1
 527 0210 FFF7FEFF 		bl	signX_Write
 528              	.LVL53:
 529 0214 0120     		movs	r0, #1
 530 0216 FFF7FEFF 		bl	signY_Write
 531              	.LVL54:
 532 021a 00E7     		b	.L18
 533              	.L31:
 105:main.c        ****             else {} // error case 
 534              		.loc 1 105 0 is_stmt 1
 535 021c 072B     		cmp	r3, #7
 536 021e 7FF4FEAE 		bne	.L18
 105:main.c        ****             else {} // error case 
 537              		.loc 1 105 0 is_stmt 0 discriminator 1
 538 0222 3F4C     		ldr	r4, .L70+12
 539 0224 2078     		ldrb	r0, [r4]	@ zero_extendqisi2
 540 0226 0001     		lsls	r0, r0, #4
 541 0228 00F0F000 		and	r0, r0, #240
 542 022c FFF7FEFF 		bl	X_SetValue
 543              	.LVL55:
 544 0230 2078     		ldrb	r0, [r4]	@ zero_extendqisi2
 545 0232 0001     		lsls	r0, r0, #4
 546 0234 00F0F000 		and	r0, r0, #240
 547 0238 FFF7FEFF 		bl	Y_SetValue
 548              	.LVL56:
 549 023c 0020     		movs	r0, #0
 550 023e FFF7FEFF 		bl	signX_Write
 551              	.LVL57:
 552 0242 0120     		movs	r0, #1
 553 0244 FFF7FEFF 		bl	signY_Write
 554              	.LVL58:
 555 0248 E9E6     		b	.L18
 556              	.L24:
 109:main.c        ****             //bias
 557              		.loc 1 109 0 is_stmt 1
ARM GAS  C:\Users\julians\AppData\Local\Temp\ccSQYQJc.s 			page 15


 558 024a 042B     		cmp	r3, #4
 559 024c 7DD1     		bne	.L32
 111:main.c        ****             else if(data_QAM > 7){signX_Write(1); signY_Write(1); tmp= data_QAM - 8;}
 560              		.loc 1 111 0
 561 024e 334B     		ldr	r3, .L70+8
 562 0250 1B88     		ldrh	r3, [r3]
 563 0252 0B2B     		cmp	r3, #11
 564 0254 0BD9     		bls	.L33
 111:main.c        ****             else if(data_QAM > 7){signX_Write(1); signY_Write(1); tmp= data_QAM - 8;}
 565              		.loc 1 111 0 is_stmt 0 discriminator 1
 566 0256 0020     		movs	r0, #0
 567 0258 FFF7FEFF 		bl	signX_Write
 568              	.LVL59:
 569 025c 0120     		movs	r0, #1
 570 025e FFF7FEFF 		bl	signY_Write
 571              	.LVL60:
 572 0262 2E4B     		ldr	r3, .L70+8
 573 0264 1B88     		ldrh	r3, [r3]
 574 0266 0C3B     		subs	r3, r3, #12
 575 0268 2E4A     		ldr	r2, .L70+16
 576 026a 1380     		strh	r3, [r2]	@ movhi
 577 026c 21E0     		b	.L34
 578              	.L33:
 112:main.c        ****             else if(data_QAM >3){signX_Write(1); signY_Write(1); tmp = data_QAM - 4;}
 579              		.loc 1 112 0 is_stmt 1
 580 026e 072B     		cmp	r3, #7
 581 0270 0BD9     		bls	.L35
 112:main.c        ****             else if(data_QAM >3){signX_Write(1); signY_Write(1); tmp = data_QAM - 4;}
 582              		.loc 1 112 0 is_stmt 0 discriminator 1
 583 0272 0120     		movs	r0, #1
 584 0274 FFF7FEFF 		bl	signX_Write
 585              	.LVL61:
 586 0278 0120     		movs	r0, #1
 587 027a FFF7FEFF 		bl	signY_Write
 588              	.LVL62:
 589 027e 274B     		ldr	r3, .L70+8
 590 0280 1B88     		ldrh	r3, [r3]
 591 0282 083B     		subs	r3, r3, #8
 592 0284 274A     		ldr	r2, .L70+16
 593 0286 1380     		strh	r3, [r2]	@ movhi
 594 0288 13E0     		b	.L34
 595              	.L35:
 113:main.c        ****             else{signX_Write(0); signY_Write(0);};
 596              		.loc 1 113 0 is_stmt 1
 597 028a 032B     		cmp	r3, #3
 598 028c 0BD9     		bls	.L36
 113:main.c        ****             else{signX_Write(0); signY_Write(0);};
 599              		.loc 1 113 0 is_stmt 0 discriminator 1
 600 028e 0120     		movs	r0, #1
 601 0290 FFF7FEFF 		bl	signX_Write
 602              	.LVL63:
 603 0294 0120     		movs	r0, #1
 604 0296 FFF7FEFF 		bl	signY_Write
 605              	.LVL64:
 606 029a 204B     		ldr	r3, .L70+8
 607 029c 1B88     		ldrh	r3, [r3]
 608 029e 043B     		subs	r3, r3, #4
ARM GAS  C:\Users\julians\AppData\Local\Temp\ccSQYQJc.s 			page 16


 609 02a0 204A     		ldr	r2, .L70+16
 610 02a2 1380     		strh	r3, [r2]	@ movhi
 611 02a4 05E0     		b	.L34
 612              	.L36:
 114:main.c        ****             //analog data
 613              		.loc 1 114 0 is_stmt 1
 614 02a6 0020     		movs	r0, #0
 615 02a8 FFF7FEFF 		bl	signX_Write
 616              	.LVL65:
 617 02ac 0020     		movs	r0, #0
 618 02ae FFF7FEFF 		bl	signY_Write
 619              	.LVL66:
 620              	.L34:
 116:main.c        ****             else if(tmp == 1){X_SetValue(16*s); Y_SetValue(8*s);}
 621              		.loc 1 116 0
 622 02b2 1C4B     		ldr	r3, .L70+16
 623 02b4 1B88     		ldrh	r3, [r3]
 624 02b6 6BB9     		cbnz	r3, .L37
 116:main.c        ****             else if(tmp == 1){X_SetValue(16*s); Y_SetValue(8*s);}
 625              		.loc 1 116 0 is_stmt 0 discriminator 1
 626 02b8 194C     		ldr	r4, .L70+12
 627 02ba 2078     		ldrb	r0, [r4]	@ zero_extendqisi2
 628 02bc C000     		lsls	r0, r0, #3
 629 02be 00F0F800 		and	r0, r0, #248
 630 02c2 FFF7FEFF 		bl	X_SetValue
 631              	.LVL67:
 632 02c6 2078     		ldrb	r0, [r4]	@ zero_extendqisi2
 633 02c8 C000     		lsls	r0, r0, #3
 634 02ca 00F0F800 		and	r0, r0, #248
 635 02ce FFF7FEFF 		bl	Y_SetValue
 636              	.LVL68:
 637 02d2 A4E6     		b	.L18
 638              	.L37:
 117:main.c        ****             else if(tmp == 2){X_SetValue(8*s); Y_SetValue(16*s);}
 639              		.loc 1 117 0 is_stmt 1
 640 02d4 012B     		cmp	r3, #1
 641 02d6 0DD1     		bne	.L38
 117:main.c        ****             else if(tmp == 2){X_SetValue(8*s); Y_SetValue(16*s);}
 642              		.loc 1 117 0 is_stmt 0 discriminator 1
 643 02d8 114C     		ldr	r4, .L70+12
 644 02da 2078     		ldrb	r0, [r4]	@ zero_extendqisi2
 645 02dc 0001     		lsls	r0, r0, #4
 646 02de 00F0F000 		and	r0, r0, #240
 647 02e2 FFF7FEFF 		bl	X_SetValue
 648              	.LVL69:
 649 02e6 2078     		ldrb	r0, [r4]	@ zero_extendqisi2
 650 02e8 C000     		lsls	r0, r0, #3
 651 02ea 00F0F800 		and	r0, r0, #248
 652 02ee FFF7FEFF 		bl	Y_SetValue
 653              	.LVL70:
 654 02f2 94E6     		b	.L18
 655              	.L38:
 118:main.c        ****             else if(tmp == 3){X_SetValue(16*s); Y_SetValue(16*s);}
 656              		.loc 1 118 0 is_stmt 1
 657 02f4 022B     		cmp	r3, #2
 658 02f6 17D1     		bne	.L39
 118:main.c        ****             else if(tmp == 3){X_SetValue(16*s); Y_SetValue(16*s);}
ARM GAS  C:\Users\julians\AppData\Local\Temp\ccSQYQJc.s 			page 17


 659              		.loc 1 118 0 is_stmt 0 discriminator 1
 660 02f8 094C     		ldr	r4, .L70+12
 661 02fa 2078     		ldrb	r0, [r4]	@ zero_extendqisi2
 662 02fc C000     		lsls	r0, r0, #3
 663 02fe 00F0F800 		and	r0, r0, #248
 664 0302 FFF7FEFF 		bl	X_SetValue
 665              	.LVL71:
 666 0306 2078     		ldrb	r0, [r4]	@ zero_extendqisi2
 667 0308 0001     		lsls	r0, r0, #4
 668 030a 00F0F000 		and	r0, r0, #240
 669 030e FFF7FEFF 		bl	Y_SetValue
 670              	.LVL72:
 671 0312 84E6     		b	.L18
 672              	.L71:
 673              		.align	2
 674              	.L70:
 675 0314 00000000 		.word	isr1_clk
 676 0318 00000000 		.word	log2N
 677 031c 00000000 		.word	data_QAM
 678 0320 00000000 		.word	s
 679 0324 00000000 		.word	tmp
 680              	.L39:
 119:main.c        ****             else{}; //error case
 681              		.loc 1 119 0 is_stmt 1
 682 0328 032B     		cmp	r3, #3
 683 032a 7FF478AE 		bne	.L18
 119:main.c        ****             else{}; //error case
 684              		.loc 1 119 0 is_stmt 0 discriminator 1
 685 032e AB4C     		ldr	r4, .L72
 686 0330 2078     		ldrb	r0, [r4]	@ zero_extendqisi2
 687 0332 0001     		lsls	r0, r0, #4
 688 0334 00F0F000 		and	r0, r0, #240
 689 0338 FFF7FEFF 		bl	X_SetValue
 690              	.LVL73:
 691 033c 2078     		ldrb	r0, [r4]	@ zero_extendqisi2
 692 033e 0001     		lsls	r0, r0, #4
 693 0340 00F0F000 		and	r0, r0, #240
 694 0344 FFF7FEFF 		bl	Y_SetValue
 695              	.LVL74:
 696 0348 69E6     		b	.L18
 697              	.L32:
 123:main.c        ****             //bias
 698              		.loc 1 123 0 is_stmt 1
 699 034a 052B     		cmp	r3, #5
 700 034c 43D1     		bne	.L40
 125:main.c        ****             else if(data_QAM > 15){signX_Write(0); signY_Write(0); tmp= data_QAM - 16;}
 701              		.loc 1 125 0
 702 034e A44B     		ldr	r3, .L72+4
 703 0350 1B88     		ldrh	r3, [r3]
 704 0352 172B     		cmp	r3, #23
 705 0354 0BD9     		bls	.L41
 125:main.c        ****             else if(data_QAM > 15){signX_Write(0); signY_Write(0); tmp= data_QAM - 16;}
 706              		.loc 1 125 0 is_stmt 0 discriminator 1
 707 0356 0020     		movs	r0, #0
 708 0358 FFF7FEFF 		bl	signX_Write
 709              	.LVL75:
 710 035c 0020     		movs	r0, #0
ARM GAS  C:\Users\julians\AppData\Local\Temp\ccSQYQJc.s 			page 18


 711 035e FFF7FEFF 		bl	signY_Write
 712              	.LVL76:
 713 0362 9F4B     		ldr	r3, .L72+4
 714 0364 1B88     		ldrh	r3, [r3]
 715 0366 183B     		subs	r3, r3, #24
 716 0368 9E4A     		ldr	r2, .L72+8
 717 036a 1380     		strh	r3, [r2]	@ movhi
 718 036c 21E0     		b	.L42
 719              	.L41:
 126:main.c        ****             else if(data_QAM >7){signX_Write(0); signY_Write(0); tmp = data_QAM - 8;}
 720              		.loc 1 126 0 is_stmt 1
 721 036e 0F2B     		cmp	r3, #15
 722 0370 0BD9     		bls	.L43
 126:main.c        ****             else if(data_QAM >7){signX_Write(0); signY_Write(0); tmp = data_QAM - 8;}
 723              		.loc 1 126 0 is_stmt 0 discriminator 1
 724 0372 0020     		movs	r0, #0
 725 0374 FFF7FEFF 		bl	signX_Write
 726              	.LVL77:
 727 0378 0020     		movs	r0, #0
 728 037a FFF7FEFF 		bl	signY_Write
 729              	.LVL78:
 730 037e 984B     		ldr	r3, .L72+4
 731 0380 1B88     		ldrh	r3, [r3]
 732 0382 103B     		subs	r3, r3, #16
 733 0384 974A     		ldr	r2, .L72+8
 734 0386 1380     		strh	r3, [r2]	@ movhi
 735 0388 13E0     		b	.L42
 736              	.L43:
 127:main.c        ****             else{signX_Write(0); signY_Write(0);};
 737              		.loc 1 127 0 is_stmt 1
 738 038a 072B     		cmp	r3, #7
 739 038c 0BD9     		bls	.L44
 127:main.c        ****             else{signX_Write(0); signY_Write(0);};
 740              		.loc 1 127 0 is_stmt 0 discriminator 1
 741 038e 0020     		movs	r0, #0
 742 0390 FFF7FEFF 		bl	signX_Write
 743              	.LVL79:
 744 0394 0020     		movs	r0, #0
 745 0396 FFF7FEFF 		bl	signY_Write
 746              	.LVL80:
 747 039a 914B     		ldr	r3, .L72+4
 748 039c 1B88     		ldrh	r3, [r3]
 749 039e 083B     		subs	r3, r3, #8
 750 03a0 904A     		ldr	r2, .L72+8
 751 03a2 1380     		strh	r3, [r2]	@ movhi
 752 03a4 05E0     		b	.L42
 753              	.L44:
 128:main.c        ****             //analog data
 754              		.loc 1 128 0 is_stmt 1
 755 03a6 0020     		movs	r0, #0
 756 03a8 FFF7FEFF 		bl	signX_Write
 757              	.LVL81:
 758 03ac 0020     		movs	r0, #0
 759 03ae FFF7FEFF 		bl	signY_Write
 760              	.LVL82:
 761              	.L42:
 130:main.c        ****             Y_SetValue(s*ycoor);
ARM GAS  C:\Users\julians\AppData\Local\Temp\ccSQYQJc.s 			page 19


 762              		.loc 1 130 0
 763 03b2 8A4C     		ldr	r4, .L72
 764 03b4 2378     		ldrb	r3, [r4]	@ zero_extendqisi2
 765 03b6 8C4A     		ldr	r2, .L72+12
 766 03b8 1078     		ldrb	r0, [r2]	@ zero_extendqisi2
 767 03ba 03FB00F0 		mul	r0, r3, r0
 768 03be C0B2     		uxtb	r0, r0
 769 03c0 FFF7FEFF 		bl	X_SetValue
 770              	.LVL83:
 131:main.c        ****         }
 771              		.loc 1 131 0
 772 03c4 2378     		ldrb	r3, [r4]	@ zero_extendqisi2
 773 03c6 894A     		ldr	r2, .L72+16
 774 03c8 1078     		ldrb	r0, [r2]	@ zero_extendqisi2
 775 03ca 03FB00F0 		mul	r0, r3, r0
 776 03ce C0B2     		uxtb	r0, r0
 777 03d0 FFF7FEFF 		bl	Y_SetValue
 778              	.LVL84:
 779 03d4 23E6     		b	.L18
 780              	.L40:
 134:main.c        ****             //bias
 781              		.loc 1 134 0
 782 03d6 062B     		cmp	r3, #6
 783 03d8 43D1     		bne	.L45
 136:main.c        ****             else if(data_QAM > 31){signX_Write(1); signY_Write(0); tmp= data_QAM - 32;}
 784              		.loc 1 136 0
 785 03da 814B     		ldr	r3, .L72+4
 786 03dc 1B88     		ldrh	r3, [r3]
 787 03de 2F2B     		cmp	r3, #47
 788 03e0 0BD9     		bls	.L46
 136:main.c        ****             else if(data_QAM > 31){signX_Write(1); signY_Write(0); tmp= data_QAM - 32;}
 789              		.loc 1 136 0 is_stmt 0 discriminator 1
 790 03e2 0020     		movs	r0, #0
 791 03e4 FFF7FEFF 		bl	signX_Write
 792              	.LVL85:
 793 03e8 0020     		movs	r0, #0
 794 03ea FFF7FEFF 		bl	signY_Write
 795              	.LVL86:
 796 03ee 7C4B     		ldr	r3, .L72+4
 797 03f0 1B88     		ldrh	r3, [r3]
 798 03f2 303B     		subs	r3, r3, #48
 799 03f4 7B4A     		ldr	r2, .L72+8
 800 03f6 1380     		strh	r3, [r2]	@ movhi
 801 03f8 21E0     		b	.L47
 802              	.L46:
 137:main.c        ****             else if(data_QAM >15){signX_Write(1); signY_Write(1); tmp = data_QAM - 16;}
 803              		.loc 1 137 0 is_stmt 1
 804 03fa 1F2B     		cmp	r3, #31
 805 03fc 0BD9     		bls	.L48
 137:main.c        ****             else if(data_QAM >15){signX_Write(1); signY_Write(1); tmp = data_QAM - 16;}
 806              		.loc 1 137 0 is_stmt 0 discriminator 1
 807 03fe 0120     		movs	r0, #1
 808 0400 FFF7FEFF 		bl	signX_Write
 809              	.LVL87:
 810 0404 0020     		movs	r0, #0
 811 0406 FFF7FEFF 		bl	signY_Write
 812              	.LVL88:
ARM GAS  C:\Users\julians\AppData\Local\Temp\ccSQYQJc.s 			page 20


 813 040a 754B     		ldr	r3, .L72+4
 814 040c 1B88     		ldrh	r3, [r3]
 815 040e 203B     		subs	r3, r3, #32
 816 0410 744A     		ldr	r2, .L72+8
 817 0412 1380     		strh	r3, [r2]	@ movhi
 818 0414 13E0     		b	.L47
 819              	.L48:
 138:main.c        ****             else{signX_Write(0); signY_Write(0);};
 820              		.loc 1 138 0 is_stmt 1
 821 0416 0F2B     		cmp	r3, #15
 822 0418 0BD9     		bls	.L49
 138:main.c        ****             else{signX_Write(0); signY_Write(0);};
 823              		.loc 1 138 0 is_stmt 0 discriminator 1
 824 041a 0120     		movs	r0, #1
 825 041c FFF7FEFF 		bl	signX_Write
 826              	.LVL89:
 827 0420 0120     		movs	r0, #1
 828 0422 FFF7FEFF 		bl	signY_Write
 829              	.LVL90:
 830 0426 6E4B     		ldr	r3, .L72+4
 831 0428 1B88     		ldrh	r3, [r3]
 832 042a 103B     		subs	r3, r3, #16
 833 042c 6D4A     		ldr	r2, .L72+8
 834 042e 1380     		strh	r3, [r2]	@ movhi
 835 0430 05E0     		b	.L47
 836              	.L49:
 139:main.c        ****             //analog data
 837              		.loc 1 139 0 is_stmt 1
 838 0432 0020     		movs	r0, #0
 839 0434 FFF7FEFF 		bl	signX_Write
 840              	.LVL91:
 841 0438 0020     		movs	r0, #0
 842 043a FFF7FEFF 		bl	signY_Write
 843              	.LVL92:
 844              	.L47:
 142:main.c        ****             Y_SetValue(s*ycoor);
 845              		.loc 1 142 0
 846 043e 674C     		ldr	r4, .L72
 847 0440 2378     		ldrb	r3, [r4]	@ zero_extendqisi2
 848 0442 694A     		ldr	r2, .L72+12
 849 0444 1078     		ldrb	r0, [r2]	@ zero_extendqisi2
 850 0446 03FB00F0 		mul	r0, r3, r0
 851 044a C0B2     		uxtb	r0, r0
 852 044c FFF7FEFF 		bl	X_SetValue
 853              	.LVL93:
 143:main.c        ****         }
 854              		.loc 1 143 0
 855 0450 2378     		ldrb	r3, [r4]	@ zero_extendqisi2
 856 0452 664A     		ldr	r2, .L72+16
 857 0454 1078     		ldrb	r0, [r2]	@ zero_extendqisi2
 858 0456 03FB00F0 		mul	r0, r3, r0
 859 045a C0B2     		uxtb	r0, r0
 860 045c FFF7FEFF 		bl	Y_SetValue
 861              	.LVL94:
 862 0460 DDE5     		b	.L18
 863              	.L45:
 146:main.c        ****             //bias
ARM GAS  C:\Users\julians\AppData\Local\Temp\ccSQYQJc.s 			page 21


 864              		.loc 1 146 0
 865 0462 072B     		cmp	r3, #7
 866 0464 43D1     		bne	.L50
 148:main.c        ****             else if(data_QAM > 63){signX_Write(1); signY_Write(0); tmp= data_QAM - 64;}
 867              		.loc 1 148 0
 868 0466 5E4B     		ldr	r3, .L72+4
 869 0468 1B88     		ldrh	r3, [r3]
 870 046a 5F2B     		cmp	r3, #95
 871 046c 0BD9     		bls	.L51
 148:main.c        ****             else if(data_QAM > 63){signX_Write(1); signY_Write(0); tmp= data_QAM - 64;}
 872              		.loc 1 148 0 is_stmt 0 discriminator 1
 873 046e 0020     		movs	r0, #0
 874 0470 FFF7FEFF 		bl	signX_Write
 875              	.LVL95:
 876 0474 0020     		movs	r0, #0
 877 0476 FFF7FEFF 		bl	signY_Write
 878              	.LVL96:
 879 047a 594B     		ldr	r3, .L72+4
 880 047c 1B88     		ldrh	r3, [r3]
 881 047e 603B     		subs	r3, r3, #96
 882 0480 584A     		ldr	r2, .L72+8
 883 0482 1380     		strh	r3, [r2]	@ movhi
 884 0484 21E0     		b	.L52
 885              	.L51:
 149:main.c        ****             else if(data_QAM >31){signX_Write(1); signY_Write(1); tmp = data_QAM - 32;}
 886              		.loc 1 149 0 is_stmt 1
 887 0486 3F2B     		cmp	r3, #63
 888 0488 0BD9     		bls	.L53
 149:main.c        ****             else if(data_QAM >31){signX_Write(1); signY_Write(1); tmp = data_QAM - 32;}
 889              		.loc 1 149 0 is_stmt 0 discriminator 1
 890 048a 0120     		movs	r0, #1
 891 048c FFF7FEFF 		bl	signX_Write
 892              	.LVL97:
 893 0490 0020     		movs	r0, #0
 894 0492 FFF7FEFF 		bl	signY_Write
 895              	.LVL98:
 896 0496 524B     		ldr	r3, .L72+4
 897 0498 1B88     		ldrh	r3, [r3]
 898 049a 403B     		subs	r3, r3, #64
 899 049c 514A     		ldr	r2, .L72+8
 900 049e 1380     		strh	r3, [r2]	@ movhi
 901 04a0 13E0     		b	.L52
 902              	.L53:
 150:main.c        ****             else{signX_Write(0); signY_Write(0);};
 903              		.loc 1 150 0 is_stmt 1
 904 04a2 1F2B     		cmp	r3, #31
 905 04a4 0BD9     		bls	.L54
 150:main.c        ****             else{signX_Write(0); signY_Write(0);};
 906              		.loc 1 150 0 is_stmt 0 discriminator 1
 907 04a6 0120     		movs	r0, #1
 908 04a8 FFF7FEFF 		bl	signX_Write
 909              	.LVL99:
 910 04ac 0120     		movs	r0, #1
 911 04ae FFF7FEFF 		bl	signY_Write
 912              	.LVL100:
 913 04b2 4B4B     		ldr	r3, .L72+4
 914 04b4 1B88     		ldrh	r3, [r3]
ARM GAS  C:\Users\julians\AppData\Local\Temp\ccSQYQJc.s 			page 22


 915 04b6 203B     		subs	r3, r3, #32
 916 04b8 4A4A     		ldr	r2, .L72+8
 917 04ba 1380     		strh	r3, [r2]	@ movhi
 918 04bc 05E0     		b	.L52
 919              	.L54:
 151:main.c        ****              //analog data
 920              		.loc 1 151 0 is_stmt 1
 921 04be 0020     		movs	r0, #0
 922 04c0 FFF7FEFF 		bl	signX_Write
 923              	.LVL101:
 924 04c4 0020     		movs	r0, #0
 925 04c6 FFF7FEFF 		bl	signY_Write
 926              	.LVL102:
 927              	.L52:
 153:main.c        ****             Y_SetValue(s*ycoor);
 928              		.loc 1 153 0
 929 04ca 444C     		ldr	r4, .L72
 930 04cc 2378     		ldrb	r3, [r4]	@ zero_extendqisi2
 931 04ce 464A     		ldr	r2, .L72+12
 932 04d0 1078     		ldrb	r0, [r2]	@ zero_extendqisi2
 933 04d2 03FB00F0 		mul	r0, r3, r0
 934 04d6 C0B2     		uxtb	r0, r0
 935 04d8 FFF7FEFF 		bl	X_SetValue
 936              	.LVL103:
 154:main.c        ****         }
 937              		.loc 1 154 0
 938 04dc 2378     		ldrb	r3, [r4]	@ zero_extendqisi2
 939 04de 434A     		ldr	r2, .L72+16
 940 04e0 1078     		ldrb	r0, [r2]	@ zero_extendqisi2
 941 04e2 03FB00F0 		mul	r0, r3, r0
 942 04e6 C0B2     		uxtb	r0, r0
 943 04e8 FFF7FEFF 		bl	Y_SetValue
 944              	.LVL104:
 945 04ec 97E5     		b	.L18
 946              	.L50:
 157:main.c        ****             //bias
 947              		.loc 1 157 0
 948 04ee 082B     		cmp	r3, #8
 949 04f0 43D1     		bne	.L55
 159:main.c        ****             else if(data_QAM > 127){signX_Write(1); signY_Write(0); tmp= data_QAM - 128;}
 950              		.loc 1 159 0
 951 04f2 3B4B     		ldr	r3, .L72+4
 952 04f4 1B88     		ldrh	r3, [r3]
 953 04f6 BF2B     		cmp	r3, #191
 954 04f8 0BD9     		bls	.L56
 159:main.c        ****             else if(data_QAM > 127){signX_Write(1); signY_Write(0); tmp= data_QAM - 128;}
 955              		.loc 1 159 0 is_stmt 0 discriminator 1
 956 04fa 0020     		movs	r0, #0
 957 04fc FFF7FEFF 		bl	signX_Write
 958              	.LVL105:
 959 0500 0020     		movs	r0, #0
 960 0502 FFF7FEFF 		bl	signY_Write
 961              	.LVL106:
 962 0506 364B     		ldr	r3, .L72+4
 963 0508 1B88     		ldrh	r3, [r3]
 964 050a C03B     		subs	r3, r3, #192
 965 050c 354A     		ldr	r2, .L72+8
ARM GAS  C:\Users\julians\AppData\Local\Temp\ccSQYQJc.s 			page 23


 966 050e 1380     		strh	r3, [r2]	@ movhi
 967 0510 21E0     		b	.L57
 968              	.L56:
 160:main.c        ****             else if(data_QAM >63){signX_Write(1); signY_Write(1); tmp = data_QAM - 64;}
 969              		.loc 1 160 0 is_stmt 1
 970 0512 7F2B     		cmp	r3, #127
 971 0514 0BD9     		bls	.L58
 160:main.c        ****             else if(data_QAM >63){signX_Write(1); signY_Write(1); tmp = data_QAM - 64;}
 972              		.loc 1 160 0 is_stmt 0 discriminator 1
 973 0516 0120     		movs	r0, #1
 974 0518 FFF7FEFF 		bl	signX_Write
 975              	.LVL107:
 976 051c 0020     		movs	r0, #0
 977 051e FFF7FEFF 		bl	signY_Write
 978              	.LVL108:
 979 0522 2F4B     		ldr	r3, .L72+4
 980 0524 1B88     		ldrh	r3, [r3]
 981 0526 803B     		subs	r3, r3, #128
 982 0528 2E4A     		ldr	r2, .L72+8
 983 052a 1380     		strh	r3, [r2]	@ movhi
 984 052c 13E0     		b	.L57
 985              	.L58:
 161:main.c        ****             else{signX_Write(0); signY_Write(0);};
 986              		.loc 1 161 0 is_stmt 1
 987 052e 3F2B     		cmp	r3, #63
 988 0530 0BD9     		bls	.L59
 161:main.c        ****             else{signX_Write(0); signY_Write(0);};
 989              		.loc 1 161 0 is_stmt 0 discriminator 1
 990 0532 0120     		movs	r0, #1
 991 0534 FFF7FEFF 		bl	signX_Write
 992              	.LVL109:
 993 0538 0120     		movs	r0, #1
 994 053a FFF7FEFF 		bl	signY_Write
 995              	.LVL110:
 996 053e 284B     		ldr	r3, .L72+4
 997 0540 1B88     		ldrh	r3, [r3]
 998 0542 403B     		subs	r3, r3, #64
 999 0544 274A     		ldr	r2, .L72+8
 1000 0546 1380     		strh	r3, [r2]	@ movhi
 1001 0548 05E0     		b	.L57
 1002              	.L59:
 162:main.c        ****              //analog data
 1003              		.loc 1 162 0 is_stmt 1
 1004 054a 0020     		movs	r0, #0
 1005 054c FFF7FEFF 		bl	signX_Write
 1006              	.LVL111:
 1007 0550 0020     		movs	r0, #0
 1008 0552 FFF7FEFF 		bl	signY_Write
 1009              	.LVL112:
 1010              	.L57:
 164:main.c        ****             Y_SetValue(s*ycoor);
 1011              		.loc 1 164 0
 1012 0556 214C     		ldr	r4, .L72
 1013 0558 2378     		ldrb	r3, [r4]	@ zero_extendqisi2
 1014 055a 234A     		ldr	r2, .L72+12
 1015 055c 1078     		ldrb	r0, [r2]	@ zero_extendqisi2
 1016 055e 03FB00F0 		mul	r0, r3, r0
ARM GAS  C:\Users\julians\AppData\Local\Temp\ccSQYQJc.s 			page 24


 1017 0562 C0B2     		uxtb	r0, r0
 1018 0564 FFF7FEFF 		bl	X_SetValue
 1019              	.LVL113:
 165:main.c        ****         }
 1020              		.loc 1 165 0
 1021 0568 2378     		ldrb	r3, [r4]	@ zero_extendqisi2
 1022 056a 204A     		ldr	r2, .L72+16
 1023 056c 1078     		ldrb	r0, [r2]	@ zero_extendqisi2
 1024 056e 03FB00F0 		mul	r0, r3, r0
 1025 0572 C0B2     		uxtb	r0, r0
 1026 0574 FFF7FEFF 		bl	Y_SetValue
 1027              	.LVL114:
 1028 0578 51E5     		b	.L18
 1029              	.L55:
 168:main.c        ****         //bias
 1030              		.loc 1 168 0
 1031 057a 092B     		cmp	r3, #9
 1032 057c 50D1     		bne	.L60
 170:main.c        ****             else if(data_QAM > 255){signX_Write(1); signY_Write(0); tmp= data_QAM - 256;}
 1033              		.loc 1 170 0
 1034 057e 184B     		ldr	r3, .L72+4
 1035 0580 1B88     		ldrh	r3, [r3]
 1036 0582 B3F5C07F 		cmp	r3, #384
 1037 0586 0CD3     		bcc	.L61
 170:main.c        ****             else if(data_QAM > 255){signX_Write(1); signY_Write(0); tmp= data_QAM - 256;}
 1038              		.loc 1 170 0 is_stmt 0 discriminator 1
 1039 0588 0020     		movs	r0, #0
 1040 058a FFF7FEFF 		bl	signX_Write
 1041              	.LVL115:
 1042 058e 0020     		movs	r0, #0
 1043 0590 FFF7FEFF 		bl	signY_Write
 1044              	.LVL116:
 1045 0594 124B     		ldr	r3, .L72+4
 1046 0596 1B88     		ldrh	r3, [r3]
 1047 0598 A3F5C073 		sub	r3, r3, #384
 1048 059c 114A     		ldr	r2, .L72+8
 1049 059e 1380     		strh	r3, [r2]	@ movhi
 1050 05a0 2CE0     		b	.L62
 1051              	.L61:
 171:main.c        ****             else if(data_QAM >127){signX_Write(1); signY_Write(1); tmp = data_QAM - 128;}
 1052              		.loc 1 171 0 is_stmt 1
 1053 05a2 FF2B     		cmp	r3, #255
 1054 05a4 0CD9     		bls	.L63
 171:main.c        ****             else if(data_QAM >127){signX_Write(1); signY_Write(1); tmp = data_QAM - 128;}
 1055              		.loc 1 171 0 is_stmt 0 discriminator 1
 1056 05a6 0120     		movs	r0, #1
 1057 05a8 FFF7FEFF 		bl	signX_Write
 1058              	.LVL117:
 1059 05ac 0020     		movs	r0, #0
 1060 05ae FFF7FEFF 		bl	signY_Write
 1061              	.LVL118:
 1062 05b2 0B4B     		ldr	r3, .L72+4
 1063 05b4 1B88     		ldrh	r3, [r3]
 1064 05b6 A3F58073 		sub	r3, r3, #256
 1065 05ba 0A4A     		ldr	r2, .L72+8
 1066 05bc 1380     		strh	r3, [r2]	@ movhi
 1067 05be 1DE0     		b	.L62
ARM GAS  C:\Users\julians\AppData\Local\Temp\ccSQYQJc.s 			page 25


 1068              	.L63:
 172:main.c        ****             else{signX_Write(0); signY_Write(0);};
 1069              		.loc 1 172 0 is_stmt 1
 1070 05c0 7F2B     		cmp	r3, #127
 1071 05c2 15D9     		bls	.L64
 172:main.c        ****             else{signX_Write(0); signY_Write(0);};
 1072              		.loc 1 172 0 is_stmt 0 discriminator 1
 1073 05c4 0120     		movs	r0, #1
 1074 05c6 FFF7FEFF 		bl	signX_Write
 1075              	.LVL119:
 1076 05ca 0120     		movs	r0, #1
 1077 05cc FFF7FEFF 		bl	signY_Write
 1078              	.LVL120:
 1079 05d0 034B     		ldr	r3, .L72+4
 1080 05d2 1B88     		ldrh	r3, [r3]
 1081 05d4 803B     		subs	r3, r3, #128
 1082 05d6 034A     		ldr	r2, .L72+8
 1083 05d8 1380     		strh	r3, [r2]	@ movhi
 1084 05da 0FE0     		b	.L62
 1085              	.L73:
 1086              		.align	2
 1087              	.L72:
 1088 05dc 00000000 		.word	s
 1089 05e0 00000000 		.word	data_QAM
 1090 05e4 00000000 		.word	tmp
 1091 05e8 00000000 		.word	xcoor
 1092 05ec 00000000 		.word	ycoor
 1093              	.L64:
 173:main.c        ****             //analog data
 1094              		.loc 1 173 0 is_stmt 1
 1095 05f0 0020     		movs	r0, #0
 1096 05f2 FFF7FEFF 		bl	signX_Write
 1097              	.LVL121:
 1098 05f6 0020     		movs	r0, #0
 1099 05f8 FFF7FEFF 		bl	signY_Write
 1100              	.LVL122:
 1101              	.L62:
 175:main.c        ****             Y_SetValue(s*ycoor);    
 1102              		.loc 1 175 0
 1103 05fc 2E4C     		ldr	r4, .L74
 1104 05fe 2378     		ldrb	r3, [r4]	@ zero_extendqisi2
 1105 0600 2E4A     		ldr	r2, .L74+4
 1106 0602 1078     		ldrb	r0, [r2]	@ zero_extendqisi2
 1107 0604 03FB00F0 		mul	r0, r3, r0
 1108 0608 C0B2     		uxtb	r0, r0
 1109 060a FFF7FEFF 		bl	X_SetValue
 1110              	.LVL123:
 176:main.c        ****         }
 1111              		.loc 1 176 0
 1112 060e 2378     		ldrb	r3, [r4]	@ zero_extendqisi2
 1113 0610 2B4A     		ldr	r2, .L74+8
 1114 0612 1078     		ldrb	r0, [r2]	@ zero_extendqisi2
 1115 0614 03FB00F0 		mul	r0, r3, r0
 1116 0618 C0B2     		uxtb	r0, r0
 1117 061a FFF7FEFF 		bl	Y_SetValue
 1118              	.LVL124:
 1119 061e FEE4     		b	.L18
ARM GAS  C:\Users\julians\AppData\Local\Temp\ccSQYQJc.s 			page 26


 1120              	.L60:
 179:main.c        ****             //bias
 1121              		.loc 1 179 0
 1122 0620 0A2B     		cmp	r3, #10
 1123 0622 7FF4FCAC 		bne	.L18
 181:main.c        ****             else if(data_QAM > 511){signX_Write(1); signY_Write(0); tmp= data_QAM - 512;}
 1124              		.loc 1 181 0
 1125 0626 274B     		ldr	r3, .L74+12
 1126 0628 1B88     		ldrh	r3, [r3]
 1127 062a B3F5407F 		cmp	r3, #768
 1128 062e 0CD3     		bcc	.L65
 181:main.c        ****             else if(data_QAM > 511){signX_Write(1); signY_Write(0); tmp= data_QAM - 512;}
 1129              		.loc 1 181 0 is_stmt 0 discriminator 1
 1130 0630 0020     		movs	r0, #0
 1131 0632 FFF7FEFF 		bl	signX_Write
 1132              	.LVL125:
 1133 0636 0120     		movs	r0, #1
 1134 0638 FFF7FEFF 		bl	signY_Write
 1135              	.LVL126:
 1136 063c 214B     		ldr	r3, .L74+12
 1137 063e 1B88     		ldrh	r3, [r3]
 1138 0640 A3F54073 		sub	r3, r3, #768
 1139 0644 204A     		ldr	r2, .L74+16
 1140 0646 1380     		strh	r3, [r2]	@ movhi
 1141 0648 24E0     		b	.L66
 1142              	.L65:
 182:main.c        ****             else if(data_QAM > 255){signX_Write(1); signY_Write(1); tmp = data_QAM - 256;}
 1143              		.loc 1 182 0 is_stmt 1
 1144 064a B3F5007F 		cmp	r3, #512
 1145 064e 0CD3     		bcc	.L67
 182:main.c        ****             else if(data_QAM > 255){signX_Write(1); signY_Write(1); tmp = data_QAM - 256;}
 1146              		.loc 1 182 0 is_stmt 0 discriminator 1
 1147 0650 0120     		movs	r0, #1
 1148 0652 FFF7FEFF 		bl	signX_Write
 1149              	.LVL127:
 1150 0656 0020     		movs	r0, #0
 1151 0658 FFF7FEFF 		bl	signY_Write
 1152              	.LVL128:
 1153 065c 194B     		ldr	r3, .L74+12
 1154 065e 1B88     		ldrh	r3, [r3]
 1155 0660 A3F50073 		sub	r3, r3, #512
 1156 0664 184A     		ldr	r2, .L74+16
 1157 0666 1380     		strh	r3, [r2]	@ movhi
 1158 0668 14E0     		b	.L66
 1159              	.L67:
 183:main.c        ****             else{signX_Write(0); signY_Write(0);};
 1160              		.loc 1 183 0 is_stmt 1
 1161 066a FF2B     		cmp	r3, #255
 1162 066c 0CD9     		bls	.L68
 183:main.c        ****             else{signX_Write(0); signY_Write(0);};
 1163              		.loc 1 183 0 is_stmt 0 discriminator 1
 1164 066e 0120     		movs	r0, #1
 1165 0670 FFF7FEFF 		bl	signX_Write
 1166              	.LVL129:
 1167 0674 0120     		movs	r0, #1
 1168 0676 FFF7FEFF 		bl	signY_Write
 1169              	.LVL130:
ARM GAS  C:\Users\julians\AppData\Local\Temp\ccSQYQJc.s 			page 27


 1170 067a 124B     		ldr	r3, .L74+12
 1171 067c 1B88     		ldrh	r3, [r3]
 1172 067e A3F58073 		sub	r3, r3, #256
 1173 0682 114A     		ldr	r2, .L74+16
 1174 0684 1380     		strh	r3, [r2]	@ movhi
 1175 0686 05E0     		b	.L66
 1176              	.L68:
 184:main.c        ****              //analog data
 1177              		.loc 1 184 0 is_stmt 1
 1178 0688 0020     		movs	r0, #0
 1179 068a FFF7FEFF 		bl	signX_Write
 1180              	.LVL131:
 1181 068e 0020     		movs	r0, #0
 1182 0690 FFF7FEFF 		bl	signY_Write
 1183              	.LVL132:
 1184              	.L66:
 186:main.c        ****             Y_SetValue(s*ycoor);
 1185              		.loc 1 186 0
 1186 0694 084C     		ldr	r4, .L74
 1187 0696 2378     		ldrb	r3, [r4]	@ zero_extendqisi2
 1188 0698 084A     		ldr	r2, .L74+4
 1189 069a 1078     		ldrb	r0, [r2]	@ zero_extendqisi2
 1190 069c 03FB00F0 		mul	r0, r3, r0
 1191 06a0 C0B2     		uxtb	r0, r0
 1192 06a2 FFF7FEFF 		bl	X_SetValue
 1193              	.LVL133:
 187:main.c        ****             
 1194              		.loc 1 187 0
 1195 06a6 2378     		ldrb	r3, [r4]	@ zero_extendqisi2
 1196 06a8 054A     		ldr	r2, .L74+8
 1197 06aa 1078     		ldrb	r0, [r2]	@ zero_extendqisi2
 1198 06ac 03FB00F0 		mul	r0, r3, r0
 1199 06b0 C0B2     		uxtb	r0, r0
 1200 06b2 FFF7FEFF 		bl	Y_SetValue
 1201              	.LVL134:
 1202 06b6 B2E4     		b	.L18
 1203              	.L75:
 1204              		.align	2
 1205              	.L74:
 1206 06b8 00000000 		.word	s
 1207 06bc 00000000 		.word	xcoor
 1208 06c0 00000000 		.word	ycoor
 1209 06c4 00000000 		.word	data_QAM
 1210 06c8 00000000 		.word	tmp
 1211              		.cfi_endproc
 1212              	.LFE65:
 1213              		.size	main, .-main
 1214              		.comm	uno,1,1
 1215              		.comm	xlim,1,1
 1216              		.comm	ycoor,1,1
 1217              		.comm	xcoor,1,1
 1218              		.comm	s,1,1
 1219              		.comm	log2N,1,1
 1220              		.comm	nbit,1,1
 1221              		.comm	N,2,2
 1222              		.comm	tmp,2,2
 1223              		.comm	data_QAM,2,2
ARM GAS  C:\Users\julians\AppData\Local\Temp\ccSQYQJc.s 			page 28


 1224              		.text
 1225              	.Letext0:
 1226              		.file 2 "c:\\program files (x86)\\cypress\\psoc creator\\4.1\\psoc creator\\import\\gnu\\arm\\5.4.
 1227              		.file 3 "c:\\program files (x86)\\cypress\\psoc creator\\4.1\\psoc creator\\import\\gnu\\arm\\5.4.
 1228              		.file 4 "Generated_Source\\PSoC5/cytypes.h"
 1229              		.file 5 "Generated_Source\\PSoC5/core_cm3.h"
 1230              		.file 6 "Generated_Source\\PSoC5/data_out.h"
 1231              		.file 7 "Generated_Source\\PSoC5/Pin_in_clk.h"
 1232              		.file 8 "Generated_Source\\PSoC5/UART.h"
 1233              		.file 9 "Generated_Source\\PSoC5/CLOCK.h"
 1234              		.file 10 "Generated_Source\\PSoC5/X.h"
 1235              		.file 11 "Generated_Source\\PSoC5/Y.h"
 1236              		.file 12 "Generated_Source\\PSoC5/isr_clk.h"
 1237              		.file 13 "Generated_Source\\PSoC5/signX.h"
 1238              		.file 14 "Generated_Source\\PSoC5/signY.h"